; Function Attrs: mustprogress nounwind sspstrong uwtable
define void @_ZN3tbb6detail2r119global_control_lockEv() local_unnamed_addr #4 personality ptr @__gxx_personality_v0 {
  br label %2

1:                                                ; preds = %_ZN3tbb6detail2d110spin_mutex4lockEv.exit
  ret void

2:                                                ; preds = %0, %_ZN3tbb6detail2d110spin_mutex4lockEv.exit
  %.0.idx5 = phi i64 [ 0, %0 ], [ %.0.add, %_ZN3tbb6detail2d110spin_mutex4lockEv.exit ]
  %.0.ptr = getelementptr inbounds nuw i8, ptr @_ZN3tbb6detail2r1L8controlsE, i64 %.0.idx5
  %3 = load ptr, ptr %.0.ptr, align 8, !tbaa !18
  %4 = getelementptr inbounds nuw i8, ptr %3, i64 64
  %5 = atomicrmw xchg ptr %4, i8 1 seq_cst, align 1
  %6 = trunc i8 %5 to i1
  br i1 %6, label %.lr.ph.i, label %_ZN3tbb6detail2d110spin_mutex4lockEv.exit

.lr.ph.i:                                         ; preds = %2, %_ZN3tbb6detail2d014atomic_backoff5pauseEv.exit.i
  %.sroa.0.02.i = phi i32 [ %.sroa.0.1.i, %_ZN3tbb6detail2d014atomic_backoff5pauseEv.exit.i ], [ 1, %2 ]
  %7 = icmp slt i32 %.sroa.0.02.i, 17
  br i1 %7, label %8, label %13

8:                                                ; preds = %.lr.ph.i
  %9 = icmp sgt i32 %.sroa.0.02.i, 0
  br i1 %9, label %.lr.ph.i.i.i, label %_ZN3tbb6detail2d0L13machine_pauseEi.exit.i.i

.lr.ph.i.i.i:                                     ; preds = %8, %.lr.ph.i.i.i
  %.01.i.i.i = phi i32 [ %10, %.lr.ph.i.i.i ], [ %.sroa.0.02.i, %8 ]
  %10 = add nsw i32 %.01.i.i.i, -1
  tail call void @llvm.x86.sse2.pause()
  %11 = icmp samesign ugt i32 %.01.i.i.i, 1
  br i1 %11, label %.lr.ph.i.i.i, label %_ZN3tbb6detail2d0L13machine_pauseEi.exit.i.i, !llvm.loop !20

_ZN3tbb6detail2d0L13machine_pauseEi.exit.i.i:     ; preds = %.lr.ph.i.i.i, %8
  %12 = shl nsw i32 %.sroa.0.02.i, 1
  br label %_ZN3tbb6detail2d014atomic_backoff5pauseEv.exit.i

13:                                               ; preds = %.lr.ph.i
  %14 = tail call noundef i32 @sched_yield() #12
  br label %_ZN3tbb6detail2d014atomic_backoff5pauseEv.exit.i

_ZN3tbb6detail2d014atomic_backoff5pauseEv.exit.i: ; preds = %13, %_ZN3tbb6detail2d0L13machine_pauseEi.exit.i.i
  %.sroa.0.1.i = phi i32 [ %12, %_ZN3tbb6detail2d0L13machine_pauseEi.exit.i.i ], [ %.sroa.0.02.i, %13 ]
  %15 = atomicrmw xchg ptr %4, i8 1 seq_cst, align 1
  %16 = trunc i8 %15 to i1
  br i1 %16, label %.lr.ph.i, label %_ZN3tbb6detail2d110spin_mutex4lockEv.exit, !llvm.loop !22

_ZN3tbb6detail2d110spin_mutex4lockEv.exit:        ; preds = %_ZN3tbb6detail2d014atomic_backoff5pauseEv.exit.i, %2
  %.0.add = add nuw nsw i64 %.0.idx5, 8
  %.not = icmp eq i64 %.0.add, 32
  br i1 %.not, label %1, label %2
}